target datalayout = "e-m:e-p270:32:32-p271:32:32-p272:64:64-i64:64-i128:128-f80:128-n8:16:32:64-S128"
target triple = "x86_64-pc-linux-gnu"

%struct.SpGistScanOpaqueData = type { %struct.SpGistState, ptr, ptr, ptr, i8, i8, i32, ptr, i32, i32, ptr, ptr, ptr, i32, %struct.FmgrInfo, %struct.FmgrInfo, ptr, ptr, ptr, i64, i8, ptr, i32, i32, [408 x %struct.ItemPointerData], [408 x i8], [408 x i8], [408 x ptr], [408 x ptr] }
%struct.SpGistState = type { ptr, %struct.spgConfigOut, %struct.SpGistTypeDesc, %struct.SpGistTypeDesc, %struct.SpGistTypeDesc, %struct.SpGistTypeDesc, ptr, ptr, i32, i8 }
%struct.spgConfigOut = type { i32, i32, i32, i8, i8 }
%struct.SpGistTypeDesc = type { i32, i16, i8, i8, i8 }
%struct.FmgrInfo = type { ptr, i32, i16, i8, i8, i8, ptr, ptr, ptr }
%struct.ItemPointerData = type { %struct.BlockIdData, i16 }
%struct.BlockIdData = type { i16, i16 }
%struct.IndexOrderByDistance = type { double, i8 }
%struct.TupleDescData = type { i32, i32, i32, i32, ptr, [0 x %struct.CompactAttribute] }
%struct.CompactAttribute = type { i32, i16, i8, i8, i8, i8, i8, i8, i8 }

; Function Attrs: nounwind uwtable
define internal void @storeGettuple(ptr noundef %0, ptr noundef %1, i64 noundef %2, i1 noundef zeroext %3, ptr noundef %4, i1 noundef zeroext %5, i1 noundef zeroext %6, ptr noundef %7) #0 {
  %9 = alloca ptr, align 8
  %10 = alloca ptr, align 8
  %11 = alloca i64, align 8
  %12 = alloca i8, align 1
  %13 = alloca ptr, align 8
  %14 = alloca i8, align 1
  %15 = alloca i8, align 1
  %16 = alloca ptr, align 8
  %17 = alloca ptr, align 8
  %18 = alloca i32, align 4
  %19 = alloca i32, align 4
  %20 = alloca [32 x i64], align 16
  %21 = alloca [32 x i8], align 16
  store ptr %0, ptr %9, align 8
  store ptr %1, ptr %10, align 8
  store i64 %2, ptr %11, align 8
  %22 = zext i1 %3 to i8
  store i8 %22, ptr %12, align 1
  store ptr %4, ptr %13, align 8
  %23 = zext i1 %5 to i8
  store i8 %23, ptr %14, align 1
  %24 = zext i1 %6 to i8
  store i8 %24, ptr %15, align 1
  store ptr %7, ptr %16, align 8
  %25 = load ptr, ptr %9, align 8
  %26 = getelementptr inbounds nuw %struct.SpGistScanOpaqueData, ptr %25, i32 0, i32 24
  %27 = load ptr, ptr %9, align 8
  %28 = getelementptr inbounds nuw %struct.SpGistScanOpaqueData, ptr %27, i32 0, i32 22
  %29 = load i32, ptr %28, align 8
  %30 = sext i32 %29 to i64
  %31 = getelementptr inbounds [408 x %struct.ItemPointerData], ptr %26, i64 0, i64 %30
  %32 = load ptr, ptr %10, align 8
  call void @llvm.memcpy.p0.p0.i64(ptr align 2 %31, ptr align 2 %32, i64 6, i1 false)
  %33 = load i8, ptr %14, align 1, !range !7, !noundef !8
  %34 = trunc i8 %33 to i1
  %35 = load ptr, ptr %9, align 8
  %36 = getelementptr inbounds nuw %struct.SpGistScanOpaqueData, ptr %35, i32 0, i32 25
  %37 = load ptr, ptr %9, align 8
  %38 = getelementptr inbounds nuw %struct.SpGistScanOpaqueData, ptr %37, i32 0, i32 22
  %39 = load i32, ptr %38, align 8
  %40 = sext i32 %39 to i64
  %41 = getelementptr inbounds [408 x i8], ptr %36, i64 0, i64 %40
  %42 = zext i1 %34 to i8
  store i8 %42, ptr %41, align 1
  %43 = load i8, ptr %15, align 1, !range !7, !noundef !8
  %44 = trunc i8 %43 to i1
  %45 = load ptr, ptr %9, align 8
  %46 = getelementptr inbounds nuw %struct.SpGistScanOpaqueData, ptr %45, i32 0, i32 26
  %47 = load ptr, ptr %9, align 8
  %48 = getelementptr inbounds nuw %struct.SpGistScanOpaqueData, ptr %47, i32 0, i32 22
  %49 = load i32, ptr %48, align 8
  %50 = sext i32 %49 to i64
  %51 = getelementptr inbounds [408 x i8], ptr %46, i64 0, i64 %50
  %52 = zext i1 %44 to i8
  store i8 %52, ptr %51, align 1
  %53 = load ptr, ptr %9, align 8
  %54 = getelementptr inbounds nuw %struct.SpGistScanOpaqueData, ptr %53, i32 0, i32 8
  %55 = load i32, ptr %54, align 8
  %56 = icmp sgt i32 %55, 0
  br i1 %56, label %57, label %137

57:                                               ; preds = %8
  %58 = load i8, ptr %12, align 1, !range !7, !noundef !8
  %59 = trunc i8 %58 to i1
  br i1 %59, label %65, label %60

60:                                               ; preds = %57
  %61 = load ptr, ptr %9, align 8
  %62 = getelementptr inbounds nuw %struct.SpGistScanOpaqueData, ptr %61, i32 0, i32 9
  %63 = load i32, ptr %62, align 4
  %64 = icmp sle i32 %63, 0
  br i1 %64, label %65, label %73

65:                                               ; preds = %60, %57
  %66 = load ptr, ptr %9, align 8
  %67 = getelementptr inbounds nuw %struct.SpGistScanOpaqueData, ptr %66, i32 0, i32 28
  %68 = load ptr, ptr %9, align 8
  %69 = getelementptr inbounds nuw %struct.SpGistScanOpaqueData, ptr %68, i32 0, i32 22
  %70 = load i32, ptr %69, align 8
  %71 = sext i32 %70 to i64
  %72 = getelementptr inbounds [408 x ptr], ptr %67, i64 0, i64 %71
  store ptr null, ptr %72, align 8
  br label %136

73:                                               ; preds = %60
  call void @llvm.lifetime.start.p0(i64 8, ptr %17) #9
  %74 = load ptr, ptr %9, align 8
  %75 = getelementptr inbounds nuw %struct.SpGistScanOpaqueData, ptr %74, i32 0, i32 8
  %76 = load i32, ptr %75, align 8
  %77 = sext i32 %76 to i64
  %78 = mul i64 16, %77
  %79 = call ptr @palloc(i64 noundef %78)
  store ptr %79, ptr %17, align 8
  call void @llvm.lifetime.start.p0(i64 4, ptr %18) #9
  store i32 0, ptr %18, align 4
  br label %80

80:                                               ; preds = %124, %73
  %81 = load i32, ptr %18, align 4
  %82 = load ptr, ptr %9, align 8
  %83 = getelementptr inbounds nuw %struct.SpGistScanOpaqueData, ptr %82, i32 0, i32 8
  %84 = load i32, ptr %83, align 8
  %85 = icmp slt i32 %81, %84
  br i1 %85, label %86, label %127

86:                                               ; preds = %80
  call void @llvm.lifetime.start.p0(i64 4, ptr %19) #9
  %87 = load ptr, ptr %9, align 8
  %88 = getelementptr inbounds nuw %struct.SpGistScanOpaqueData, ptr %87, i32 0, i32 12
  %89 = load ptr, ptr %88, align 8
  %90 = load i32, ptr %18, align 4
  %91 = sext i32 %90 to i64
  %92 = getelementptr inbounds i32, ptr %89, i64 %91
  %93 = load i32, ptr %92, align 4
  store i32 %93, ptr %19, align 4
  %94 = load i32, ptr %19, align 4
  %95 = icmp sge i32 %94, 0
  br i1 %95, label %96, label %112

96:                                               ; preds = %86
  %97 = load ptr, ptr %16, align 8
  %98 = load i32, ptr %19, align 4
  %99 = sext i32 %98 to i64
  %100 = getelementptr inbounds double, ptr %97, i64 %99
  %101 = load double, ptr %100, align 8
  %102 = load ptr, ptr %17, align 8
  %103 = load i32, ptr %18, align 4
  %104 = sext i32 %103 to i64
  %105 = getelementptr inbounds %struct.IndexOrderByDistance, ptr %102, i64 %104
  %106 = getelementptr inbounds nuw %struct.IndexOrderByDistance, ptr %105, i32 0, i32 0
  store double %101, ptr %106, align 8
  %107 = load ptr, ptr %17, align 8
  %108 = load i32, ptr %18, align 4
  %109 = sext i32 %108 to i64
  %110 = getelementptr inbounds %struct.IndexOrderByDistance, ptr %107, i64 %109
  %111 = getelementptr inbounds nuw %struct.IndexOrderByDistance, ptr %110, i32 0, i32 1
  store i8 0, ptr %111, align 8
  br label %123

112:                                              ; preds = %86
  %113 = load ptr, ptr %17, align 8
  %114 = load i32, ptr %18, align 4
  %115 = sext i32 %114 to i64
  %116 = getelementptr inbounds %struct.IndexOrderByDistance, ptr %113, i64 %115
  %117 = getelementptr inbounds nuw %struct.IndexOrderByDistance, ptr %116, i32 0, i32 0
  store double 0.000000e+00, ptr %117, align 8
  %118 = load ptr, ptr %17, align 8
  %119 = load i32, ptr %18, align 4
  %120 = sext i32 %119 to i64
  %121 = getelementptr inbounds %struct.IndexOrderByDistance, ptr %118, i64 %120
  %122 = getelementptr inbounds nuw %struct.IndexOrderByDistance, ptr %121, i32 0, i32 1
  store i8 1, ptr %122, align 8
  br label %123

123:                                              ; preds = %112, %96
  call void @llvm.lifetime.end.p0(i64 4, ptr %19) #9
  br label %124

124:                                              ; preds = %123
  %125 = load i32, ptr %18, align 4
  %126 = add i32 %125, 1
  store i32 %126, ptr %18, align 4
  br label %80, !llvm.loop !18

127:                                              ; preds = %80
  %128 = load ptr, ptr %17, align 8
  %129 = load ptr, ptr %9, align 8
  %130 = getelementptr inbounds nuw %struct.SpGistScanOpaqueData, ptr %129, i32 0, i32 28
  %131 = load ptr, ptr %9, align 8
  %132 = getelementptr inbounds nuw %struct.SpGistScanOpaqueData, ptr %131, i32 0, i32 22
  %133 = load i32, ptr %132, align 8
  %134 = sext i32 %133 to i64
  %135 = getelementptr inbounds [408 x ptr], ptr %130, i64 0, i64 %134
  store ptr %128, ptr %135, align 8
  call void @llvm.lifetime.end.p0(i64 4, ptr %18) #9
  call void @llvm.lifetime.end.p0(i64 8, ptr %17) #9
  br label %136

136:                                              ; preds = %127, %65
  br label %137

137:                                              ; preds = %136, %8
  %138 = load ptr, ptr %9, align 8
  %139 = getelementptr inbounds nuw %struct.SpGistScanOpaqueData, ptr %138, i32 0, i32 20
  %140 = load i8, ptr %139, align 8, !range !7, !noundef !8
  %141 = trunc i8 %140 to i1
  br i1 %141, label %142, label %180

142:                                              ; preds = %137
  call void @llvm.lifetime.start.p0(i64 256, ptr %20) #9
  call void @llvm.lifetime.start.p0(i64 32, ptr %21) #9
  %143 = load ptr, ptr %9, align 8
  %144 = getelementptr inbounds nuw %struct.SpGistScanOpaqueData, ptr %143, i32 0, i32 0
  %145 = getelementptr inbounds nuw %struct.SpGistState, ptr %144, i32 0, i32 6
  %146 = load ptr, ptr %145, align 8
  %147 = getelementptr inbounds nuw %struct.TupleDescData, ptr %146, i32 0, i32 0
  %148 = load i32, ptr %147, align 8
  %149 = icmp sgt i32 %148, 1
  br i1 %149, label %150, label %160

150:                                              ; preds = %142
  %151 = load ptr, ptr %13, align 8
  %152 = load ptr, ptr %9, align 8
  %153 = getelementptr inbounds nuw %struct.SpGistScanOpaqueData, ptr %152, i32 0, i32 0
  %154 = getelementptr inbounds nuw %struct.SpGistState, ptr %153, i32 0, i32 6
  %155 = load ptr, ptr %154, align 8
  %156 = getelementptr inbounds [32 x i64], ptr %20, i64 0, i64 0
  %157 = getelementptr inbounds [32 x i8], ptr %21, i64 0, i64 0
  %158 = load i8, ptr %12, align 1, !range !7, !noundef !8
  %159 = trunc i8 %158 to i1
  call void @spgDeformLeafTuple(ptr noundef %151, ptr noundef %155, ptr noundef %156, ptr noundef %157, i1 noundef zeroext %159)
  br label %160

160:                                              ; preds = %150, %142
  %161 = load i64, ptr %11, align 8
  %162 = getelementptr inbounds [32 x i64], ptr %20, i64 0, i64 0
  store i64 %161, ptr %162, align 16
  %163 = load i8, ptr %12, align 1, !range !7, !noundef !8
  %164 = trunc i8 %163 to i1
  %165 = getelementptr inbounds [32 x i8], ptr %21, i64 0, i64 0
  %166 = zext i1 %164 to i8
  store i8 %166, ptr %165, align 16
  %167 = load ptr, ptr %9, align 8
  %168 = getelementptr inbounds nuw %struct.SpGistScanOpaqueData, ptr %167, i32 0, i32 21
  %169 = load ptr, ptr %168, align 8
  %170 = getelementptr inbounds [32 x i64], ptr %20, i64 0, i64 0
  %171 = getelementptr inbounds [32 x i8], ptr %21, i64 0, i64 0
  %172 = call ptr @heap_form_tuple(ptr noundef %169, ptr noundef %170, ptr noundef %171)
  %173 = load ptr, ptr %9, align 8
  %174 = getelementptr inbounds nuw %struct.SpGistScanOpaqueData, ptr %173, i32 0, i32 27
  %175 = load ptr, ptr %9, align 8
  %176 = getelementptr inbounds nuw %struct.SpGistScanOpaqueData, ptr %175, i32 0, i32 22
  %177 = load i32, ptr %176, align 8
  %178 = sext i32 %177 to i64
  %179 = getelementptr inbounds [408 x ptr], ptr %174, i64 0, i64 %178
  store ptr %172, ptr %179, align 8
  call void @llvm.lifetime.end.p0(i64 32, ptr %21) #9
  call void @llvm.lifetime.end.p0(i64 256, ptr %20) #9
  br label %180

180:                                              ; preds = %160, %137
  %181 = load ptr, ptr %9, align 8
  %182 = getelementptr inbounds nuw %struct.SpGistScanOpaqueData, ptr %181, i32 0, i32 22
  %183 = load i32, ptr %182, align 8
  %184 = add i32 %183, 1
  store i32 %184, ptr %182, align 8
  ret void
}