; Function Attrs: nounwind uwtable
define internal void @storeGettuple(ptr noundef captures(none) %0, ptr noundef readonly captures(none) %1, i64 noundef %2, i1 noundef zeroext %3, ptr noundef %4, i1 noundef zeroext %5, i1 noundef zeroext %6, ptr noundef readonly captures(none) %7) #0 {
  %9 = alloca [32 x i64], align 16
  %10 = alloca [32 x i8], align 16
  %11 = zext i1 %3 to i8
  %12 = zext i1 %5 to i8
  %13 = zext i1 %6 to i8
  %14 = getelementptr inbounds nuw i8, ptr %0, i64 328
  %15 = getelementptr inbounds nuw i8, ptr %0, i64 320
  %16 = load i32, ptr %15, align 8
  %17 = sext i32 %16 to i64
  %18 = getelementptr inbounds [408 x %struct.ItemPointerData], ptr %14, i64 0, i64 %17
  tail call void @llvm.memcpy.p0.p0.i64(ptr noundef nonnull align 2 dereferenceable(6) %18, ptr noundef nonnull align 2 dereferenceable(6) %1, i64 6, i1 false)
  %19 = getelementptr inbounds nuw i8, ptr %0, i64 2776
  %20 = load i32, ptr %15, align 8
  %21 = sext i32 %20 to i64
  %22 = getelementptr inbounds [408 x i8], ptr %19, i64 0, i64 %21
  store i8 %12, ptr %22, align 1
  %23 = getelementptr inbounds nuw i8, ptr %0, i64 3184
  %24 = load i32, ptr %15, align 8
  %25 = sext i32 %24 to i64
  %26 = getelementptr inbounds [408 x i8], ptr %23, i64 0, i64 %25
  store i8 %13, ptr %26, align 1
  %27 = getelementptr inbounds nuw i8, ptr %0, i64 136
  %28 = load i32, ptr %27, align 8
  %29 = icmp sgt i32 %28, 0
  br i1 %29, label %30, label %61

30:                                               ; preds = %8
  br i1 %3, label %.sink.split, label %31

31:                                               ; preds = %30
  %32 = getelementptr inbounds nuw i8, ptr %0, i64 140
  %33 = load i32, ptr %32, align 4
  %34 = icmp slt i32 %33, 1
  br i1 %34, label %.sink.split, label %35

35:                                               ; preds = %31
  %36 = zext nneg i32 %28 to i64
  %37 = shl nuw nsw i64 %36, 4
  %38 = tail call ptr @palloc(i64 noundef %37) #8
  %39 = load i32, ptr %27, align 8
  %40 = icmp sgt i32 %39, 0
  br i1 %40, label %.lr.ph, label %.sink.split

.lr.ph:                                           ; preds = %35
  %41 = getelementptr inbounds nuw i8, ptr %0, i64 160
  br label %42

42:                                               ; preds = %.lr.ph, %51
  %indvars.iv = phi i64 [ 0, %.lr.ph ], [ %indvars.iv.next, %51 ]
  %43 = load ptr, ptr %41, align 8
  %44 = getelementptr inbounds nuw i32, ptr %43, i64 %indvars.iv
  %45 = load i32, ptr %44, align 4
  %46 = icmp sgt i32 %45, -1
  br i1 %46, label %47, label %51

47:                                               ; preds = %42
  %48 = zext nneg i32 %45 to i64
  %49 = getelementptr inbounds nuw double, ptr %7, i64 %48
  %50 = load double, ptr %49, align 8
  br label %51

51:                                               ; preds = %42, %47
  %.sink50 = phi double [ %50, %47 ], [ 0.000000e+00, %42 ]
  %.sink = phi i8 [ 0, %47 ], [ 1, %42 ]
  %52 = getelementptr inbounds nuw %struct.IndexOrderByDistance, ptr %38, i64 %indvars.iv
  store double %.sink50, ptr %52, align 8
  %53 = getelementptr inbounds nuw i8, ptr %52, i64 8
  store i8 %.sink, ptr %53, align 8
  %indvars.iv.next = add nuw nsw i64 %indvars.iv, 1
  %54 = load i32, ptr %27, align 8
  %55 = sext i32 %54 to i64
  %56 = icmp slt i64 %indvars.iv.next, %55
  br i1 %56, label %42, label %.sink.split, !llvm.loop !23

.sink.split:                                      ; preds = %51, %35, %30, %31
  %.sink52 = phi ptr [ null, %31 ], [ null, %30 ], [ %38, %35 ], [ %38, %51 ]
  %57 = getelementptr inbounds nuw i8, ptr %0, i64 6856
  %58 = load i32, ptr %15, align 8
  %59 = sext i32 %58 to i64
  %60 = getelementptr inbounds [408 x ptr], ptr %57, i64 0, i64 %59
  store ptr %.sink52, ptr %60, align 8
  br label %61

61:                                               ; preds = %.sink.split, %8
  %62 = getelementptr inbounds nuw i8, ptr %0, i64 304
  %63 = load i8, ptr %62, align 8, !range !9, !noundef !10
  %64 = trunc nuw i8 %63 to i1
  br i1 %64, label %65, label %79

65:                                               ; preds = %61
  call void @llvm.lifetime.start.p0(i64 256, ptr nonnull %9) #8
  call void @llvm.lifetime.start.p0(i64 32, ptr nonnull %10) #8
  %66 = getelementptr inbounds nuw i8, ptr %0, i64 72
  %67 = load ptr, ptr %66, align 8
  %68 = load i32, ptr %67, align 8
  %69 = icmp sgt i32 %68, 1
  br i1 %69, label %70, label %71

70:                                               ; preds = %65
  call void @spgDeformLeafTuple(ptr noundef %4, ptr noundef nonnull %67, ptr noundef nonnull %9, ptr noundef nonnull %10, i1 noundef zeroext %3) #8
  br label %71

71:                                               ; preds = %70, %65
  store i64 %2, ptr %9, align 16
  store i8 %11, ptr %10, align 16
  %72 = getelementptr inbounds nuw i8, ptr %0, i64 312
  %73 = load ptr, ptr %72, align 8
  %74 = call ptr @heap_form_tuple(ptr noundef %73, ptr noundef nonnull %9, ptr noundef nonnull %10) #8
  %75 = getelementptr inbounds nuw i8, ptr %0, i64 3592
  %76 = load i32, ptr %15, align 8
  %77 = sext i32 %76 to i64
  %78 = getelementptr inbounds [408 x ptr], ptr %75, i64 0, i64 %77
  store ptr %74, ptr %78, align 8
  call void @llvm.lifetime.end.p0(i64 32, ptr nonnull %10) #8
  call void @llvm.lifetime.end.p0(i64 256, ptr nonnull %9) #8
  br label %79

79:                                               ; preds = %71, %61
  %80 = load i32, ptr %15, align 8
  %81 = add i32 %80, 1
  store i32 %81, ptr %15, align 8
  ret void
}